_ZNK4Dali8Internal17PropertyInputImpl8GetFloatEj
_ZN4Dali9Scripting15NewShaderEffectERKNS_8Property5ValueE
_ZN4Dali11Integration15MultiPointEvent8AddPointERKNS_10TouchPointE
_ZN4Dali8MaterialD2Ev
_ZN4Dali9Scripting26GetPositionInheritanceModeERKSs
_ZN4Dali9Scripting26GetPositionInheritanceModeENS_23PositionInheritanceModeE
_ZNK4Dali8Material19GetNumberOfSamplersEv
_ZN4Dali8Material16SetBlendEquationENS_16BlendingEquation4TypeE
_ZNK4Dali11Integration15MultiPointEvent8GetPointEj
_ZN4Dali11Integration27SetPanGestureUseActualTimesEb
_ZN4Dali11Integration37SetPanGestureTwoPointAccelerationBiasEf
_ZN4Dali8Material12SetBlendFuncENS_14BlendingFactor4TypeES2_
_ZN4Dali8Material12SetBlendModeENS_12BlendingMode4TypeE
_ZN4Dali11Integration19PlatformAbstraction12GetResourcesERNS0_13ResourceCacheE
_ZNK4Dali8Internal17PropertyInputImpl16InputInitializedEv
_ZNK4Dali7Sampler8GetImageEv
_ZN4Dali7Sampler3NewERNS_5ImageERKSs
_ZN4Dali7Sampler14SetUniformNameERKSs
_ZNK4Dali8Internal10SceneGraph15InheritedMatrix7IsCleanEv
_ZNK4Dali8Geometry23GetRequiresDepthTestingEv
_ZN4Dali7Sampler8SetImageERNS_5ImageE
_ZNK4Dali8Internal17PropertyInputImpl10GetVector3Ej
_ZN4Dali11Integration4Core18SetPixmapYInvertedEb
_ZN4Dali11Integration4Core15UpdateTouchDataERKNS0_9TouchDataE
_ZNK4Dali8Internal17PropertyInputImpl25GetConstraintInputVector4Ej
_ZN4Dali11Integration35SetPanGestureMultitapSmoothingRangeEi
_ZNK4Dali8Internal17PropertyInputImpl13GetQuaternionEj
_ZN4Dali11Integration40SetPanGestureTwoPointInterpolatePastTimeEi
_ZN4Dali9Scripting17GetAnchorConstantERKSs
_ZN4Dali11Integration33SetPanGestureTwoPointVelocityBiasEf
_ZN4Dali9Scripting12GetColorModeERKSs
_ZN4Dali8Geometry23SetRequiresDepthTestingEb
_ZN4Dali9Scripting12GetColorModeENS_9ColorModeE
_ZN4Dali14PropertyBuffer3NewERNS_8Property3MapEj
_ZNK4Dali8Internal17PropertyInputImpl10GetVector4Ej
_ZNK4Dali8Material13GetBlendColorEv
_ZNK4Dali11Integration19PlatformAbstraction18GetDefaultFontSizeEv
_ZN4Dali11SetCullFaceENS_10ImageActorENS_12CullFaceModeE
_ZNK4Dali8Internal17PropertyInputImpl10GetBooleanEj
_ZNK4Dali8Material12GetSamplerAtEj
_ZNK4Dali8Material16GetBlendEquationERNS_16BlendingEquation4TypeES3_
_ZNK4Dali8Internal17PropertyInputImpl10GetMatrix3Ej
_ZN4Dali11Integration9Profiling20MATERIAL_MEMORY_SIZEE
_ZN4Dali11Integration40SetPanGestureScalarOnlyPredictionEnabledEb
_ZN4Dali8MaterialD1Ev
_ZN4Dali8Material13SetBlendColorERKNS_7Vector4E
_ZNK4Dali8Internal17PropertyInputImpl24GetConstraintInputMatrixEj
_ZNK4Dali8Internal17PropertyInputImpl23GetConstraintInputFloatEj
_ZNK4Dali8Material12GetBlendFuncERNS_14BlendingFactor4TypeES3_S3_S3_
_ZN4Dali8Material18SetFaceCullingModeENS0_15FaceCullingModeE
_ZN4Dali8MaterialC1ERKS0_
_ZN4Dali14PropertyBuffer7SetDataEPv
_ZN4Dali11GetCullFaceENS_10ImageActorE
_ZN4Dali11Integration19PlatformAbstraction19GetClosestImageSizeERKSsNS_10Uint16PairENS_11FittingMode4TypeENS_12SamplingMode4TypeEb
_ZN4Dali8Material13RemoveSamplerEj
_ZN4Dali8Renderer11SetMaterialERNS_8MaterialE
_ZN4Dali11Integration15MultiPointEvent8GetPointEj
_ZN4Dali11Integration38SetPanGestureTwoPointPredictionEnabledEb
_ZN4Dali11Integration19PlatformAbstraction17JoinLoaderThreadsEv
_ZN4Dali11Integration18TouchEventCombiner17GetNextTouchEventERKNS_10TouchPointEmRNS0_10TouchEventERNS0_10HoverEventE
_ZN4Dali7Sampler11SetWrapModeENS0_8WrapModeES1_
_ZN4Dali6Shader3NewERKSsS2_NS0_11ShaderHintsE
_ZN4Dali8Internal10SceneGraph16NodeDataProvider14GetRenderColorEj
_ZN4Dali8Material3NewENS_6ShaderE
_ZNK4Dali8Internal17PropertyInputImpl28GetConstraintInputQuaternionEj
_ZNK4Dali11Integration19PlatformAbstraction20SaveShaderBinaryFileERKSsPKhj
_ZNK4Dali8Internal17PropertyInputImpl10GetIntegerEj
_ZN4Dali8Renderer3NewERNS_8GeometryERNS_8MaterialE
_ZN4Dali11Integration19PlatformAbstraction12DecodeBufferERKNS0_12ResourceTypeEPhj
_ZNK4Dali8Internal17PropertyInputImpl25GetConstraintInputMatrix3Ej
_ZN4Dali14PropertyBuffer7SetSizeEj
_ZN4Dali8Internal10SceneGraph16NodeDataProvider14GetModelMatrixEj
_ZN4Dali7Sampler13SetFilterModeENS0_10FilterModeES1_
_ZN4Dali8MaterialaSERKS0_
_ZN4Dali8Renderer13GetDepthIndexEv
_ZNK4Dali8Internal17PropertyInputImpl25GetConstraintInputVector3Ej
_ZN4Dali11Integration19PlatformAbstraction12LoadResourceERKNS0_15ResourceRequestE
_ZN4Dali8Internal10SceneGraph16NodeDataProvider13GetRenderSizeEj
_ZN4Dali11Integration19PlatformAbstraction7SuspendEv
_ZNK4Dali8Internal17PropertyInputImpl10GetVector2Ej
_ZN4Dali8Material9SetShaderERNS_6ShaderE
_ZN4Dali11Integration19PlatformAbstraction19GetClosestImageSizeENS_12IntrusivePtrINS_9RefObjectEEENS_10Uint16PairENS_11FittingMode4TypeENS_12SamplingMode4TypeEb
_ZN4Dali11Integration19PlatformAbstraction25LoadResourceSynchronouslyERKNS0_12ResourceTypeERKSs
_ZN4Dali8Material8DownCastENS_10BaseHandleE
_ZN4Dali8MaterialC2ERKS0_
_ZNK4Dali8Internal17PropertyInputImpl25GetConstraintInputVector2Ej
_ZNK4Dali8Internal17PropertyInputImpl9GetMatrixEj
_ZNK4Dali8Internal17PropertyInputImpl12InputChangedEv
_ZN4Dali8MaterialC2Ev
_ZNK4Dali8Internal17PropertyInputImpl25GetConstraintInputBooleanEj
_ZNK4Dali8Renderer11GetMaterialEv
_ZN4Dali9Scripting11GetDrawModeENS_8DrawMode4TypeE
_ZN4Dali8Geometry14SetIndexBufferERNS_14PropertyBufferE
_ZN4Dali8Material12SetBlendFuncENS_14BlendingFactor4TypeES2_S2_S2_
_ZN4Dali9Scripting11GetDrawModeERKSs
_ZN4Dali7Sampler22SetAffectsTransparencyEb
_ZN4Dali8Renderer13SetDepthIndexEi
_ZNK4Dali11Integration19PlatformAbstraction20LoadShaderBinaryFileERKSsRNS_6VectorIhLb1EEE
_ZN4Dali11Integration19PlatformAbstraction10CancelLoadEjNS0_14ResourceTypeIdE
_ZNK4Dali8Internal17PropertyInputImpl25GetConstraintInputIntegerEj
_ZNK4Dali11Integration19PlatformAbstraction8LoadFileERKSsRNS_6VectorIhLb1EEE
_ZN4Dali8MaterialC1Ev
_ZN4Dali11Integration35SetPanGestureInterpolationTimeRangeEi
_ZNK4Dali8Material9GetShaderEv
_ZN4Dali11Integration19PlatformAbstraction6ResumeEv
_ZNK4Dali8Material12GetBlendModeEv
_ZN4Dali8Material10AddSamplerERNS_7SamplerE
_ZNK4Dali8Internal17PropertyInputImpl7GetTypeEv
_ZN4Dali8Material16SetBlendEquationENS_16BlendingEquation4TypeES2_
